target datalayout = "e-m:e-p270:32:32-p271:32:32-p272:64:64-i64:64-i128:128-f80:128-n8:16:32:64-S128"
target triple = "x86_64-pc-linux-gnu"

%"class.llvm::SmallVectorBase" = type { ptr, i32, i32 }
%"class.llvm::MachineOperand" = type { i32, %union.anon, ptr, %"union.llvm::MachineOperand::ContentsUnion" }
%union.anon = type { i32 }
%"union.llvm::MachineOperand::ContentsUnion" = type { %"class.llvm::ArrayRef" }
%"class.llvm::ArrayRef" = type { ptr, i64 }
%"class.llvm::MachineFunction" = type <{ ptr, ptr, ptr, ptr, ptr, ptr, ptr, ptr, ptr, ptr, ptr, ptr, %"class.std::vector", i32, [4 x i8], %"class.llvm::BumpPtrAllocatorImpl", %"class.llvm::Recycler", %"class.llvm::ArrayRecycler", %"class.llvm::Recycler.19", %"class.llvm::iplist", i32, %"struct.llvm::Align", i8, i8, i8, %"class.llvm::MachineFunctionProperties", %"class.std::unique_ptr", %"class.std::vector.26", %"class.std::vector.31", %"class.std::vector.31", %"class.std::vector.36", %"class.llvm::DenseMap", %"class.llvm::DenseMap.41", %"class.llvm::DenseMap.44", %"class.std::vector.47", i8, i8, i8, i8, i8, i8, [2 x i8], i32, i32, %"class.std::vector.52", %"class.std::vector.57", %"class.std::vector.57", i32, [4 x i8], ptr, ptr, %"class.llvm::DenseMap.62", %"class.llvm::SmallVector.65", i32, [4 x i8], %"class.llvm::SmallVector.70", %"class.llvm::DenseMap.75", i8, [7 x i8] }>
%"class.std::vector" = type { %"struct.std::_Vector_base" }
%"struct.std::_Vector_base" = type { %"struct.std::_Vector_base<llvm::MachineBasicBlock *, std::allocator<llvm::MachineBasicBlock *>>::_Vector_impl" }
%"struct.std::_Vector_base<llvm::MachineBasicBlock *, std::allocator<llvm::MachineBasicBlock *>>::_Vector_impl" = type { %"struct.std::_Vector_base<llvm::MachineBasicBlock *, std::allocator<llvm::MachineBasicBlock *>>::_Vector_impl_data" }
%"struct.std::_Vector_base<llvm::MachineBasicBlock *, std::allocator<llvm::MachineBasicBlock *>>::_Vector_impl_data" = type { ptr, ptr, ptr }
%"class.llvm::BumpPtrAllocatorImpl" = type { ptr, ptr, %"class.llvm::SmallVector.4", %"class.llvm::SmallVector.9", i64, i64 }
%"class.llvm::SmallVector.4" = type { %"class.llvm::SmallVectorImpl.5", %"struct.llvm::SmallVectorStorage.8" }
%"class.llvm::SmallVectorImpl.5" = type { %"class.llvm::SmallVectorTemplateBase.6" }
%"class.llvm::SmallVectorTemplateBase.6" = type { %"class.llvm::SmallVectorTemplateCommon.7" }
%"class.llvm::SmallVectorTemplateCommon.7" = type { %"class.llvm::SmallVectorBase" }
%"struct.llvm::SmallVectorStorage.8" = type { [32 x i8] }
%"class.llvm::SmallVector.9" = type { %"class.llvm::SmallVectorImpl.10" }
%"class.llvm::SmallVectorImpl.10" = type { %"class.llvm::SmallVectorTemplateBase.11" }
%"class.llvm::SmallVectorTemplateBase.11" = type { %"class.llvm::SmallVectorTemplateCommon.12" }
%"class.llvm::SmallVectorTemplateCommon.12" = type { %"class.llvm::SmallVectorBase" }
%"class.llvm::Recycler" = type { ptr }
%"class.llvm::ArrayRecycler" = type { %"class.llvm::SmallVector.14" }
%"class.llvm::SmallVector.14" = type { %"class.llvm::SmallVectorImpl.15", %"struct.llvm::SmallVectorStorage.18" }
%"class.llvm::SmallVectorImpl.15" = type { %"class.llvm::SmallVectorTemplateBase.16" }
%"class.llvm::SmallVectorTemplateBase.16" = type { %"class.llvm::SmallVectorTemplateCommon.17" }
%"class.llvm::SmallVectorTemplateCommon.17" = type { %"class.llvm::SmallVectorBase" }
%"struct.llvm::SmallVectorStorage.18" = type { [64 x i8] }
%"class.llvm::Recycler.19" = type { ptr }
%"class.llvm::iplist" = type { %"class.llvm::iplist_impl" }
%"class.llvm::iplist_impl" = type { %"class.llvm::simple_ilist" }
%"class.llvm::simple_ilist" = type { %"class.llvm::ilist_sentinel" }
%"class.llvm::ilist_sentinel" = type { %"class.llvm::ilist_node_impl.20" }
%"class.llvm::ilist_node_impl.20" = type { %"class.llvm::ilist_node_base.21" }
%"class.llvm::ilist_node_base.21" = type { %"class.llvm::ilist_detail::node_base_prevnext.22" }
%"class.llvm::ilist_detail::node_base_prevnext.22" = type { ptr, ptr }
%"struct.llvm::Align" = type { i8 }
%"class.llvm::MachineFunctionProperties" = type { %"class.std::bitset" }
%"class.std::bitset" = type { %"struct.std::_Base_bitset" }
%"struct.std::_Base_bitset" = type { i64 }
%"class.std::unique_ptr" = type { %"struct.std::__uniq_ptr_data" }
%"struct.std::__uniq_ptr_data" = type { %"class.std::__uniq_ptr_impl" }
%"class.std::__uniq_ptr_impl" = type { %"class.std::tuple" }
%"class.std::tuple" = type { %"struct.std::_Tuple_impl" }
%"struct.std::_Tuple_impl" = type { %"struct.std::_Head_base.25" }
%"struct.std::_Head_base.25" = type { ptr }
%"class.std::vector.26" = type { %"struct.std::_Vector_base.27" }
%"struct.std::_Vector_base.27" = type { %"struct.std::_Vector_base<llvm::MCCFIInstruction, std::allocator<llvm::MCCFIInstruction>>::_Vector_impl" }
%"struct.std::_Vector_base<llvm::MCCFIInstruction, std::allocator<llvm::MCCFIInstruction>>::_Vector_impl" = type { %"struct.std::_Vector_base<llvm::MCCFIInstruction, std::allocator<llvm::MCCFIInstruction>>::_Vector_impl_data" }
%"struct.std::_Vector_base<llvm::MCCFIInstruction, std::allocator<llvm::MCCFIInstruction>>::_Vector_impl_data" = type { ptr, ptr, ptr }
%"class.std::vector.31" = type { %"struct.std::_Vector_base.32" }
%"struct.std::_Vector_base.32" = type { %"struct.std::_Vector_base<llvm::MCSymbol *, std::allocator<llvm::MCSymbol *>>::_Vector_impl" }
%"struct.std::_Vector_base<llvm::MCSymbol *, std::allocator<llvm::MCSymbol *>>::_Vector_impl" = type { %"struct.std::_Vector_base<llvm::MCSymbol *, std::allocator<llvm::MCSymbol *>>::_Vector_impl_data" }
%"struct.std::_Vector_base<llvm::MCSymbol *, std::allocator<llvm::MCSymbol *>>::_Vector_impl_data" = type { ptr, ptr, ptr }
%"class.std::vector.36" = type { %"struct.std::_Vector_base.37" }
%"struct.std::_Vector_base.37" = type { %"struct.std::_Vector_base<llvm::LandingPadInfo, std::allocator<llvm::LandingPadInfo>>::_Vector_impl" }
%"struct.std::_Vector_base<llvm::LandingPadInfo, std::allocator<llvm::LandingPadInfo>>::_Vector_impl" = type { %"struct.std::_Vector_base<llvm::LandingPadInfo, std::allocator<llvm::LandingPadInfo>>::_Vector_impl_data" }
%"struct.std::_Vector_base<llvm::LandingPadInfo, std::allocator<llvm::LandingPadInfo>>::_Vector_impl_data" = type { ptr, ptr, ptr }
%"class.llvm::DenseMap" = type <{ ptr, i32, i32, i32, [4 x i8] }>
%"class.llvm::DenseMap.41" = type <{ ptr, i32, i32, i32, [4 x i8] }>
%"class.llvm::DenseMap.44" = type <{ ptr, i32, i32, i32, [4 x i8] }>
%"class.std::vector.47" = type { %"struct.std::_Vector_base.48" }
%"struct.std::_Vector_base.48" = type { %"struct.std::_Vector_base<std::pair<llvm::MCSymbol *, llvm::MDNode *>, std::allocator<std::pair<llvm::MCSymbol *, llvm::MDNode *>>>::_Vector_impl" }
%"struct.std::_Vector_base<std::pair<llvm::MCSymbol *, llvm::MDNode *>, std::allocator<std::pair<llvm::MCSymbol *, llvm::MDNode *>>>::_Vector_impl" = type { %"struct.std::_Vector_base<std::pair<llvm::MCSymbol *, llvm::MDNode *>, std::allocator<std::pair<llvm::MCSymbol *, llvm::MDNode *>>>::_Vector_impl_data" }
%"struct.std::_Vector_base<std::pair<llvm::MCSymbol *, llvm::MDNode *>, std::allocator<std::pair<llvm::MCSymbol *, llvm::MDNode *>>>::_Vector_impl_data" = type { ptr, ptr, ptr }
%"class.std::vector.52" = type { %"struct.std::_Vector_base.53" }
%"struct.std::_Vector_base.53" = type { %"struct.std::_Vector_base<const llvm::GlobalValue *, std::allocator<const llvm::GlobalValue *>>::_Vector_impl" }
%"struct.std::_Vector_base<const llvm::GlobalValue *, std::allocator<const llvm::GlobalValue *>>::_Vector_impl" = type { %"struct.std::_Vector_base<const llvm::GlobalValue *, std::allocator<const llvm::GlobalValue *>>::_Vector_impl_data" }
%"struct.std::_Vector_base<const llvm::GlobalValue *, std::allocator<const llvm::GlobalValue *>>::_Vector_impl_data" = type { ptr, ptr, ptr }
%"class.std::vector.57" = type { %"struct.std::_Vector_base.58" }
%"struct.std::_Vector_base.58" = type { %"struct.std::_Vector_base<unsigned int, std::allocator<unsigned int>>::_Vector_impl" }
%"struct.std::_Vector_base<unsigned int, std::allocator<unsigned int>>::_Vector_impl" = type { %"struct.std::_Vector_base<unsigned int, std::allocator<unsigned int>>::_Vector_impl_data" }
%"struct.std::_Vector_base<unsigned int, std::allocator<unsigned int>>::_Vector_impl_data" = type { ptr, ptr, ptr }
%"class.llvm::DenseMap.62" = type <{ ptr, i32, i32, i32, [4 x i8] }>
%"class.llvm::SmallVector.65" = type { %"class.llvm::SmallVectorImpl.66", %"struct.llvm::SmallVectorStorage.69" }
%"class.llvm::SmallVectorImpl.66" = type { %"class.llvm::SmallVectorTemplateBase.67" }
%"class.llvm::SmallVectorTemplateBase.67" = type { %"class.llvm::SmallVectorTemplateCommon.68" }
%"class.llvm::SmallVectorTemplateCommon.68" = type { %"class.llvm::SmallVectorBase" }
%"struct.llvm::SmallVectorStorage.69" = type { [128 x i8] }
%"class.llvm::SmallVector.70" = type { %"class.llvm::SmallVectorImpl.71", %"struct.llvm::SmallVectorStorage.74" }
%"class.llvm::SmallVectorImpl.71" = type { %"class.llvm::SmallVectorTemplateBase.72" }
%"class.llvm::SmallVectorTemplateBase.72" = type { %"class.llvm::SmallVectorTemplateCommon.73" }
%"class.llvm::SmallVectorTemplateCommon.73" = type { %"class.llvm::SmallVectorBase" }
%"struct.llvm::SmallVectorStorage.74" = type { [160 x i8] }
%"class.llvm::DenseMap.75" = type <{ ptr, i32, i32, i32, [4 x i8] }>
%struct.anon = type { ptr, ptr }
%"class.llvm::MachineInstr" = type <{ %"class.llvm::ilist_node_with_parent", ptr, ptr, ptr, [3 x i8], %"class.llvm::ArrayRecycler<llvm::MachineOperand>::Capacity", i32, %"class.llvm::PointerSumType", %"class.llvm::DebugLoc", i32, i16, [2 x i8] }>
%"class.llvm::ilist_node_with_parent" = type { %"class.llvm::ilist_node" }
%"class.llvm::ilist_node" = type { %"class.llvm::ilist_node_impl" }
%"class.llvm::ilist_node_impl" = type { %"class.llvm::ilist_node_base" }
%"class.llvm::ilist_node_base" = type { %"class.llvm::ilist_detail::node_base_prevnext" }
%"class.llvm::ilist_detail::node_base_prevnext" = type { %"class.llvm::PointerIntPair", ptr }
%"class.llvm::PointerIntPair" = type { %"struct.llvm::detail::PunnedPointer" }
%"struct.llvm::detail::PunnedPointer" = type { [8 x i8] }
%"class.llvm::ArrayRecycler<llvm::MachineOperand>::Capacity" = type { i8 }
%"class.llvm::PointerSumType" = type { %"union.llvm::PointerSumType<llvm::MachineInstr::ExtraInfoInlineKinds, llvm::PointerSumTypeMember<0, llvm::MachineMemOperand *>, llvm::PointerSumTypeMember<1, llvm::MCSymbol *>, llvm::PointerSumTypeMember<2, llvm::MCSymbol *>, llvm::PointerSumTypeMember<3, llvm::MachineInstr::ExtraInfo *>>::StorageT" }
%"union.llvm::PointerSumType<llvm::MachineInstr::ExtraInfoInlineKinds, llvm::PointerSumTypeMember<0, llvm::MachineMemOperand *>, llvm::PointerSumTypeMember<1, llvm::MCSymbol *>, llvm::PointerSumTypeMember<2, llvm::MCSymbol *>, llvm::PointerSumTypeMember<3, llvm::MachineInstr::ExtraInfo *>>::StorageT" = type { i64 }
%"class.llvm::DebugLoc" = type { %"class.llvm::TypedTrackingMDRef" }
%"class.llvm::TypedTrackingMDRef" = type { %"class.llvm::TrackingMDRef" }
%"class.llvm::TrackingMDRef" = type { ptr }
%"class.llvm::MachineBasicBlock" = type { %"class.llvm::ilist_node_with_parent.200", ptr, i32, i32, ptr, %"class.llvm::iplist.202", %"class.llvm::SmallVector.209", %"class.llvm::SmallVector.214", %"class.std::vector.216", %"class.std::optional.221", %"class.std::vector.229", %"struct.llvm::Align", i32, i8, i8, ptr, i8, i8, i8, i8, i8, [3 x i8], %"class.std::optional.234", %"struct.llvm::MBBSectionID", i8, i8, i8, ptr, ptr, ptr }
%"class.llvm::ilist_node_with_parent.200" = type { %"class.llvm::ilist_node.201" }
%"class.llvm::ilist_node.201" = type { %"class.llvm::ilist_node_impl.20" }
%"class.llvm::iplist.202" = type { %"class.llvm::iplist_impl.203" }
%"class.llvm::iplist_impl.203" = type { %"struct.llvm::ilist_traits.204", %"class.llvm::simple_ilist.205" }
%"struct.llvm::ilist_traits.204" = type { ptr }
%"class.llvm::simple_ilist.205" = type { %"class.llvm::ilist_sentinel.208" }
%"class.llvm::ilist_sentinel.208" = type { %"class.llvm::ilist_node_impl" }
%"class.llvm::SmallVector.209" = type { %"class.llvm::SmallVectorImpl.210", %"struct.llvm::SmallVectorStorage.213" }
%"class.llvm::SmallVectorImpl.210" = type { %"class.llvm::SmallVectorTemplateBase.211" }
%"class.llvm::SmallVectorTemplateBase.211" = type { %"class.llvm::SmallVectorTemplateCommon.212" }
%"class.llvm::SmallVectorTemplateCommon.212" = type { %"class.llvm::SmallVectorBase" }
%"struct.llvm::SmallVectorStorage.213" = type { [32 x i8] }
%"class.llvm::SmallVector.214" = type { %"class.llvm::SmallVectorImpl.210", %"struct.llvm::SmallVectorStorage.215" }
%"struct.llvm::SmallVectorStorage.215" = type { [16 x i8] }
%"class.std::vector.216" = type { %"struct.std::_Vector_base.217" }
%"struct.std::_Vector_base.217" = type { %"struct.std::_Vector_base<llvm::BranchProbability, std::allocator<llvm::BranchProbability>>::_Vector_impl" }
%"struct.std::_Vector_base<llvm::BranchProbability, std::allocator<llvm::BranchProbability>>::_Vector_impl" = type { %"struct.std::_Vector_base<llvm::BranchProbability, std::allocator<llvm::BranchProbability>>::_Vector_impl_data" }
%"struct.std::_Vector_base<llvm::BranchProbability, std::allocator<llvm::BranchProbability>>::_Vector_impl_data" = type { ptr, ptr, ptr }
%"class.std::optional.221" = type { %"struct.std::_Optional_base.222" }
%"struct.std::_Optional_base.222" = type { %"struct.std::_Optional_payload.224" }
%"struct.std::_Optional_payload.224" = type { %"struct.std::_Optional_payload_base.base.226", [7 x i8] }
%"struct.std::_Optional_payload_base.base.226" = type <{ %"union.std::_Optional_payload_base<unsigned long>::_Storage", i8 }>
%"union.std::_Optional_payload_base<unsigned long>::_Storage" = type { i64 }
%"class.std::vector.229" = type { %"struct.std::_Vector_base.230" }
%"struct.std::_Vector_base.230" = type { %"struct.std::_Vector_base<llvm::MachineBasicBlock::RegisterMaskPair, std::allocator<llvm::MachineBasicBlock::RegisterMaskPair>>::_Vector_impl" }
%"struct.std::_Vector_base<llvm::MachineBasicBlock::RegisterMaskPair, std::allocator<llvm::MachineBasicBlock::RegisterMaskPair>>::_Vector_impl" = type { %"struct.std::_Vector_base<llvm::MachineBasicBlock::RegisterMaskPair, std::allocator<llvm::MachineBasicBlock::RegisterMaskPair>>::_Vector_impl_data" }
%"struct.std::_Vector_base<llvm::MachineBasicBlock::RegisterMaskPair, std::allocator<llvm::MachineBasicBlock::RegisterMaskPair>>::_Vector_impl_data" = type { ptr, ptr, ptr }
%"class.std::optional.234" = type { %"struct.std::_Optional_base.235" }
%"struct.std::_Optional_base.235" = type { %"struct.std::_Optional_payload.237" }
%"struct.std::_Optional_payload.237" = type { %"struct.std::_Optional_payload_base.base.239", [3 x i8] }
%"struct.std::_Optional_payload_base.base.239" = type <{ %"union.std::_Optional_payload_base<llvm::UniqueBBID>::_Storage", i8 }>
%"union.std::_Optional_payload_base<llvm::UniqueBBID>::_Storage" = type { %"struct.llvm::UniqueBBID" }
%"struct.llvm::UniqueBBID" = type { i32, i32 }
%"struct.llvm::MBBSectionID" = type { i32, i32 }

; Function Attrs: mustprogress nounwind uwtable
define linkonce_odr hidden noundef ptr @_ZNK4llvm17MachineBasicBlock9getParentEv(ptr noundef nonnull align 8 dereferenceable(288) %0) #1 comdat align 2 {
  %2 = alloca ptr, align 8
  store ptr %0, ptr %2, align 8
  %3 = load ptr, ptr %2, align 8
  %4 = getelementptr inbounds nuw %"class.llvm::MachineBasicBlock", ptr %3, i32 0, i32 4
  %5 = load ptr, ptr %4, align 8
  ret ptr %5
}

; Function Attrs: mustprogress nounwind uwtable
define linkonce_odr hidden noundef ptr @_ZNK4llvm12MachineInstr9getParentEv(ptr noundef nonnull align 8 dereferenceable(70) %0) #1 comdat align 2 {
  %2 = alloca ptr, align 8
  store ptr %0, ptr %2, align 8
  %3 = load ptr, ptr %2, align 8
  %4 = getelementptr inbounds nuw %"class.llvm::MachineInstr", ptr %3, i32 0, i32 2
  %5 = load ptr, ptr %4, align 8
  ret ptr %5
}

; Function Attrs: mustprogress nounwind uwtable
define linkonce_odr hidden noundef ptr @_ZNK4llvm14MachineOperand9getParentEv(ptr noundef nonnull align 8 dereferenceable(32) %0) #1 comdat align 2 {
  %2 = alloca ptr, align 8
  store ptr %0, ptr %2, align 8
  %3 = load ptr, ptr %2, align 8
  %4 = getelementptr inbounds nuw %"class.llvm::MachineOperand", ptr %3, i32 0, i32 2
  %5 = load ptr, ptr %4, align 8
  ret ptr %5
}

; Function Attrs: mustprogress nounwind uwtable
define internal noundef ptr @_ZL16getMFIfAvailableRKN4llvm14MachineOperandE(ptr noundef nonnull align 8 dereferenceable(32) %0) #1 {
  %2 = alloca ptr, align 8
  %3 = alloca ptr, align 8
  %4 = alloca ptr, align 8
  %5 = alloca ptr, align 8
  %6 = alloca ptr, align 8
  store ptr %0, ptr %3, align 8
  %7 = load ptr, ptr %3, align 8
  %8 = call noundef ptr @_ZNK4llvm14MachineOperand9getParentEv(ptr noundef nonnull align 8 dereferenceable(32) %7)
  store ptr %8, ptr %4, align 8
  %9 = load ptr, ptr %4, align 8
  %10 = icmp ne ptr %9, null
  br i1 %10, label %11, label %25

11:                                               ; preds = %1
  %12 = load ptr, ptr %4, align 8
  %13 = call noundef ptr @_ZNK4llvm12MachineInstr9getParentEv(ptr noundef nonnull align 8 dereferenceable(70) %12)
  store ptr %13, ptr %5, align 8
  %14 = load ptr, ptr %5, align 8
  %15 = icmp ne ptr %14, null
  br i1 %15, label %16, label %24

16:                                               ; preds = %11
  %17 = load ptr, ptr %5, align 8
  %18 = call noundef ptr @_ZNK4llvm17MachineBasicBlock9getParentEv(ptr noundef nonnull align 8 dereferenceable(288) %17)
  store ptr %18, ptr %6, align 8
  %19 = load ptr, ptr %6, align 8
  %20 = icmp ne ptr %19, null
  br i1 %20, label %21, label %23

21:                                               ; preds = %16
  %22 = load ptr, ptr %6, align 8
  store ptr %22, ptr %2, align 8
  br label %26

23:                                               ; preds = %16
  br label %24

24:                                               ; preds = %23, %11
  br label %25

25:                                               ; preds = %24, %1
  store ptr null, ptr %2, align 8
  br label %26

26:                                               ; preds = %25, %21
  %27 = load ptr, ptr %2, align 8
  ret ptr %27
}

; Function Attrs: mustprogress nounwind uwtable
define linkonce_odr hidden noundef nonnull align 8 dereferenceable(512) ptr @_ZN4llvm15MachineFunction10getRegInfoEv(ptr noundef nonnull align 8 dereferenceable(1041) %0) #1 comdat align 2 {
  %2 = alloca ptr, align 8
  store ptr %0, ptr %2, align 8
  %3 = load ptr, ptr %2, align 8
  %4 = getelementptr inbounds nuw %"class.llvm::MachineFunction", ptr %3, i32 0, i32 4
  %5 = load ptr, ptr %4, align 8
  ret ptr %5
}

; Function Attrs: mustprogress nounwind uwtable
define internal noundef ptr @_ZL16getMFIfAvailableRN4llvm14MachineOperandE(ptr noundef nonnull align 8 dereferenceable(32) %0) #1 {
  %2 = alloca ptr, align 8
  store ptr %0, ptr %2, align 8
  %3 = load ptr, ptr %2, align 8
  %4 = call noundef ptr @_ZL16getMFIfAvailableRKN4llvm14MachineOperandE(ptr noundef nonnull align 8 dereferenceable(32) %3)
  ret ptr %4
}

; Function Attrs: mustprogress nounwind uwtable
define linkonce_odr hidden noundef zeroext i1 @_ZNK4llvm14MachineOperand14isOnRegUseListEv(ptr noundef nonnull align 8 dereferenceable(32) %0) #1 comdat align 2 {
  %2 = alloca ptr, align 8
  store ptr %0, ptr %2, align 8
  %3 = load ptr, ptr %2, align 8
  %4 = getelementptr inbounds nuw %"class.llvm::MachineOperand", ptr %3, i32 0, i32 3
  %5 = getelementptr inbounds nuw %struct.anon, ptr %4, i32 0, i32 0
  %6 = load ptr, ptr %5, align 8
  %7 = icmp ne ptr %6, null
  ret i1 %7
}

; Function Attrs: mustprogress nounwind uwtable
define linkonce_odr hidden noundef zeroext i1 @_ZNK4llvm14MachineOperand5isRegEv(ptr noundef nonnull align 8 dereferenceable(32) %0) #1 comdat align 2 {
  %2 = alloca ptr, align 8
  store ptr %0, ptr %2, align 8
  %3 = load ptr, ptr %2, align 8
  %4 = load i32, ptr %3, align 8
  %5 = and i32 %4, 255
  %6 = icmp eq i32 %5, 0
  ret i1 %6
}

; Function Attrs: mustprogress nounwind uwtable
define dso_local void @_ZN4llvm14MachineOperand17removeRegFromUsesEv(ptr noundef nonnull align 8 dereferenceable(32) %0) #1 align 2 {
  %2 = alloca ptr, align 8
  %3 = alloca ptr, align 8
  store ptr %0, ptr %2, align 8
  %4 = load ptr, ptr %2, align 8
  %5 = call noundef zeroext i1 @_ZNK4llvm14MachineOperand5isRegEv(ptr noundef nonnull align 8 dereferenceable(32) %4)
  br i1 %5, label %6, label %8

6:                                                ; preds = %1
  %7 = call noundef zeroext i1 @_ZNK4llvm14MachineOperand14isOnRegUseListEv(ptr noundef nonnull align 8 dereferenceable(32) %4)
  br i1 %7, label %9, label %8

8:                                                ; preds = %6, %1
  br label %16

9:                                                ; preds = %6
  %10 = call noundef ptr @_ZL16getMFIfAvailableRN4llvm14MachineOperandE(ptr noundef nonnull align 8 dereferenceable(32) %4)
  store ptr %10, ptr %3, align 8
  %11 = load ptr, ptr %3, align 8
  %12 = icmp ne ptr %11, null
  br i1 %12, label %13, label %16

13:                                               ; preds = %9
  %14 = load ptr, ptr %3, align 8
  %15 = call noundef nonnull align 8 dereferenceable(512) ptr @_ZN4llvm15MachineFunction10getRegInfoEv(ptr noundef nonnull align 8 dereferenceable(1041) %14)
  call void @_ZN4llvm19MachineRegisterInfo27removeRegOperandFromUseListEPNS_14MachineOperandE(ptr noundef nonnull align 8 dereferenceable(512) %15, ptr noundef %4)
  br label %16

16:                                               ; preds = %13, %9, %8
  ret void
}