; Function Attrs: mustprogress nounwind uwtable
define dso_local void @_ZN4llvm14MachineOperand17removeRegFromUsesEv(ptr noundef nonnull align 8 dereferenceable(32) %0) local_unnamed_addr #0 align 2 {
  %2 = load i32, ptr %0, align 8
  %3 = and i32 %2, 255
  %4 = icmp eq i32 %3, 0
  %5 = getelementptr inbounds nuw i8, ptr %0, i64 16
  %6 = load ptr, ptr %5, align 8
  %7 = icmp ne ptr %6, null
  %or.cond = select i1 %4, i1 %7, i1 false
  br i1 %or.cond, label %8, label %_ZL16getMFIfAvailableRN4llvm14MachineOperandE.exit.thread

8:                                                ; preds = %1
  %9 = getelementptr inbounds nuw i8, ptr %0, i64 8
  %.val = load ptr, ptr %9, align 8
  %.not.i.i = icmp eq ptr %.val, null
  br i1 %.not.i.i, label %_ZL16getMFIfAvailableRN4llvm14MachineOperandE.exit.thread, label %10

10:                                               ; preds = %8
  %11 = getelementptr inbounds nuw i8, ptr %.val, i64 24
  %12 = load ptr, ptr %11, align 8
  %.not11.i.i = icmp eq ptr %12, null
  br i1 %.not11.i.i, label %_ZL16getMFIfAvailableRN4llvm14MachineOperandE.exit.thread, label %13

13:                                               ; preds = %10
  %14 = getelementptr inbounds nuw i8, ptr %12, i64 32
  %15 = load ptr, ptr %14, align 8
  %.not12.i.i = icmp eq ptr %15, null
  br i1 %.not12.i.i, label %_ZL16getMFIfAvailableRN4llvm14MachineOperandE.exit.thread, label %_ZL16getMFIfAvailableRN4llvm14MachineOperandE.exit

_ZL16getMFIfAvailableRN4llvm14MachineOperandE.exit: ; preds = %13
  %16 = getelementptr inbounds nuw i8, ptr %15, i64 32
  %17 = load ptr, ptr %16, align 8
  tail call void @_ZN4llvm19MachineRegisterInfo27removeRegOperandFromUseListEPNS_14MachineOperandE(ptr noundef nonnull align 8 dereferenceable(512) %17, ptr noundef nonnull %0) #21
  br label %_ZL16getMFIfAvailableRN4llvm14MachineOperandE.exit.thread

_ZL16getMFIfAvailableRN4llvm14MachineOperandE.exit.thread: ; preds = %13, %10, %8, %1, %_ZL16getMFIfAvailableRN4llvm14MachineOperandE.exit
  ret void
}